target datalayout = "e-m:e-p270:32:32-p271:32:32-p272:64:64-i64:64-i128:128-f80:128-n8:16:32:64-S128"
target triple = "x86_64-pc-linux-gnu"

%struct.Abc_Ntk_t_ = type { i32, i32, ptr, ptr, ptr, ptr, ptr, ptr, ptr, ptr, ptr, ptr, ptr, [11 x i32], i32, i32, i32, i32, ptr, i32, ptr, ptr, i32, i32, i32, double, i32, %struct.Vec_Int_t_, ptr, ptr, ptr, ptr, ptr, float, i32, ptr, ptr, ptr, ptr, ptr, ptr, ptr, ptr, ptr, ptr, ptr, ptr, ptr, ptr, ptr, ptr, ptr, ptr, ptr, ptr, ptr, ptr }
%struct.Vec_Int_t_ = type { i32, i32, ptr }
%struct.Abc_Obj_t_ = type { ptr, ptr, i32, i32, %struct.Vec_Int_t_, %struct.Vec_Int_t_, %union.anon, %union.anon.0 }
%union.anon = type { ptr }
%union.anon.0 = type { ptr }
%struct.Vec_Ptr_t_ = type { i32, i32, ptr }
%struct.Cut_ParamsStruct_t_ = type { i32, i32, i32, i32, i32, i32, i32, i32, i32, i32, i32, i32, i32, i32, i32, i32, i32, i32, i32, i32 }

; Function Attrs: inlinehint nounwind uwtable
define internal i32 @Abc_ObjFaninC1(ptr noundef %0) #2 {
  %2 = alloca ptr, align 8
  store ptr %0, ptr %2, align 8, !tbaa !26
  %3 = load ptr, ptr %2, align 8, !tbaa !26
  %4 = getelementptr inbounds nuw %struct.Abc_Obj_t_, ptr %3, i32 0, i32 3
  %5 = load i32, ptr %4, align 4
  %6 = lshr i32 %5, 11
  %7 = and i32 %6, 1
  ret i32 %7
}

; Function Attrs: inlinehint nounwind uwtable
define internal i32 @Abc_ObjFaninC0(ptr noundef %0) #2 {
  %2 = alloca ptr, align 8
  store ptr %0, ptr %2, align 8, !tbaa !26
  %3 = load ptr, ptr %2, align 8, !tbaa !26
  %4 = getelementptr inbounds nuw %struct.Abc_Obj_t_, ptr %3, i32 0, i32 3
  %5 = load i32, ptr %4, align 4
  %6 = lshr i32 %5, 10
  %7 = and i32 %6, 1
  ret i32 %7
}

; Function Attrs: inlinehint nounwind uwtable
define internal i32 @Abc_ObjFaninId1(ptr noundef %0) #2 {
  %2 = alloca ptr, align 8
  store ptr %0, ptr %2, align 8, !tbaa !26
  %3 = load ptr, ptr %2, align 8, !tbaa !26
  %4 = getelementptr inbounds nuw %struct.Abc_Obj_t_, ptr %3, i32 0, i32 4
  %5 = getelementptr inbounds nuw %struct.Vec_Int_t_, ptr %4, i32 0, i32 2
  %6 = load ptr, ptr %5, align 8, !tbaa !73
  %7 = getelementptr inbounds i32, ptr %6, i64 1
  %8 = load i32, ptr %7, align 4, !tbaa !8
  ret i32 %8
}

; Function Attrs: inlinehint nounwind uwtable
define internal i32 @Abc_ObjFaninId0(ptr noundef %0) #2 {
  %2 = alloca ptr, align 8
  store ptr %0, ptr %2, align 8, !tbaa !26
  %3 = load ptr, ptr %2, align 8, !tbaa !26
  %4 = getelementptr inbounds nuw %struct.Abc_Obj_t_, ptr %3, i32 0, i32 4
  %5 = getelementptr inbounds nuw %struct.Vec_Int_t_, ptr %4, i32 0, i32 2
  %6 = load ptr, ptr %5, align 8, !tbaa !73
  %7 = getelementptr inbounds i32, ptr %6, i64 0
  %8 = load i32, ptr %7, align 4, !tbaa !8
  ret i32 %8
}

; Function Attrs: inlinehint nounwind uwtable
define internal i32 @Vec_IntEntry(ptr noundef %0, i32 noundef %1) #2 {
  %3 = alloca ptr, align 8
  %4 = alloca i32, align 4
  store ptr %0, ptr %3, align 8, !tbaa !50
  store i32 %1, ptr %4, align 4, !tbaa !8
  %5 = load ptr, ptr %3, align 8, !tbaa !50
  %6 = getelementptr inbounds nuw %struct.Vec_Int_t_, ptr %5, i32 0, i32 2
  %7 = load ptr, ptr %6, align 8, !tbaa !70
  %8 = load i32, ptr %4, align 4, !tbaa !8
  %9 = sext i32 %8 to i64
  %10 = getelementptr inbounds i32, ptr %7, i64 %9
  %11 = load i32, ptr %10, align 4, !tbaa !8
  ret i32 %11
}

; Function Attrs: inlinehint nounwind uwtable
define internal ptr @Abc_ObjFanin1(ptr noundef %0) #2 {
  %2 = alloca ptr, align 8
  store ptr %0, ptr %2, align 8, !tbaa !26
  %3 = load ptr, ptr %2, align 8, !tbaa !26
  %4 = getelementptr inbounds nuw %struct.Abc_Obj_t_, ptr %3, i32 0, i32 0
  %5 = load ptr, ptr %4, align 8, !tbaa !79
  %6 = getelementptr inbounds nuw %struct.Abc_Ntk_t_, ptr %5, i32 0, i32 5
  %7 = load ptr, ptr %6, align 8, !tbaa !10
  %8 = getelementptr inbounds nuw %struct.Vec_Ptr_t_, ptr %7, i32 0, i32 2
  %9 = load ptr, ptr %8, align 8, !tbaa !71
  %10 = load ptr, ptr %2, align 8, !tbaa !26
  %11 = getelementptr inbounds nuw %struct.Abc_Obj_t_, ptr %10, i32 0, i32 4
  %12 = getelementptr inbounds nuw %struct.Vec_Int_t_, ptr %11, i32 0, i32 2
  %13 = load ptr, ptr %12, align 8, !tbaa !73
  %14 = getelementptr inbounds i32, ptr %13, i64 1
  %15 = load i32, ptr %14, align 4, !tbaa !8
  %16 = sext i32 %15 to i64
  %17 = getelementptr inbounds ptr, ptr %9, i64 %16
  %18 = load ptr, ptr %17, align 8, !tbaa !72
  ret ptr %18
}

; Function Attrs: inlinehint nounwind uwtable
define internal ptr @Abc_ObjFanin0(ptr noundef %0) #2 {
  %2 = alloca ptr, align 8
  store ptr %0, ptr %2, align 8, !tbaa !26
  %3 = load ptr, ptr %2, align 8, !tbaa !26
  %4 = getelementptr inbounds nuw %struct.Abc_Obj_t_, ptr %3, i32 0, i32 0
  %5 = load ptr, ptr %4, align 8, !tbaa !79
  %6 = getelementptr inbounds nuw %struct.Abc_Ntk_t_, ptr %5, i32 0, i32 5
  %7 = load ptr, ptr %6, align 8, !tbaa !10
  %8 = getelementptr inbounds nuw %struct.Vec_Ptr_t_, ptr %7, i32 0, i32 2
  %9 = load ptr, ptr %8, align 8, !tbaa !71
  %10 = load ptr, ptr %2, align 8, !tbaa !26
  %11 = getelementptr inbounds nuw %struct.Abc_Obj_t_, ptr %10, i32 0, i32 4
  %12 = getelementptr inbounds nuw %struct.Vec_Int_t_, ptr %11, i32 0, i32 2
  %13 = load ptr, ptr %12, align 8, !tbaa !73
  %14 = getelementptr inbounds i32, ptr %13, i64 0
  %15 = load i32, ptr %14, align 4, !tbaa !8
  %16 = sext i32 %15 to i64
  %17 = getelementptr inbounds ptr, ptr %9, i64 %16
  %18 = load ptr, ptr %17, align 8, !tbaa !72
  ret ptr %18
}

; Function Attrs: inlinehint nounwind uwtable
define internal i32 @Abc_ObjFanoutNum(ptr noundef %0) #2 {
  %2 = alloca ptr, align 8
  store ptr %0, ptr %2, align 8, !tbaa !26
  %3 = load ptr, ptr %2, align 8, !tbaa !26
  %4 = getelementptr inbounds nuw %struct.Abc_Obj_t_, ptr %3, i32 0, i32 5
  %5 = getelementptr inbounds nuw %struct.Vec_Int_t_, ptr %4, i32 0, i32 1
  %6 = load i32, ptr %5, align 4, !tbaa !28
  ret i32 %6
}

; Function Attrs: nounwind uwtable
define ptr @Abc_NodeGetCuts(ptr noundef %0, ptr noundef %1, i32 noundef %2, i32 noundef %3) #0 {
  %5 = alloca ptr, align 8
  %6 = alloca ptr, align 8
  %7 = alloca i32, align 4
  %8 = alloca i32, align 4
  %9 = alloca ptr, align 8
  %10 = alloca i32, align 4
  %11 = alloca i32, align 4
  %12 = alloca i32, align 4
  %13 = alloca ptr, align 8
  %14 = alloca ptr, align 8
  store ptr %0, ptr %5, align 8, !tbaa !72
  store ptr %1, ptr %6, align 8, !tbaa !26
  store i32 %2, ptr %7, align 4, !tbaa !8
  store i32 %3, ptr %8, align 4, !tbaa !8
  call void @llvm.lifetime.start.p0(i64 8, ptr %9) #10
  call void @llvm.lifetime.start.p0(i64 4, ptr %10) #10
  call void @llvm.lifetime.start.p0(i64 4, ptr %11) #10
  call void @llvm.lifetime.start.p0(i64 4, ptr %12) #10
  store i32 0, ptr %12, align 4, !tbaa !8
  %15 = load ptr, ptr %6, align 8, !tbaa !26
  %16 = call i32 @Abc_ObjFanoutNum(ptr noundef %15)
  %17 = icmp sgt i32 %16, 1
  br i1 %17, label %18, label %23

18:                                               ; preds = %4
  %19 = load ptr, ptr %6, align 8, !tbaa !26
  %20 = call i32 @Abc_NodeIsMuxControlType(ptr noundef %19)
  %21 = icmp ne i32 %20, 0
  %22 = xor i1 %21, true
  br label %23

23:                                               ; preds = %18, %4
  %24 = phi i1 [ false, %4 ], [ %22, %18 ]
  %25 = zext i1 %24 to i32
  store i32 %25, ptr %10, align 4, !tbaa !8
  %26 = load i32, ptr %10, align 4, !tbaa !8
  %27 = icmp ne i32 %26, 0
  br i1 %27, label %28, label %30

28:                                               ; preds = %23
  %29 = load ptr, ptr %5, align 8, !tbaa !72
  call void @Cut_ManIncrementDagNodes(ptr noundef %29)
  br label %30

30:                                               ; preds = %28, %23
  %31 = load i32, ptr %10, align 4, !tbaa !8
  %32 = icmp ne i32 %31, 0
  br i1 %32, label %37, label %33

33:                                               ; preds = %30
  %34 = load i32, ptr %7, align 4, !tbaa !8
  %35 = icmp ne i32 %34, 0
  %36 = xor i1 %35, true
  br label %37

37:                                               ; preds = %33, %30
  %38 = phi i1 [ true, %30 ], [ %36, %33 ]
  %39 = zext i1 %38 to i32
  store i32 %39, ptr %11, align 4, !tbaa !8
  %40 = load i32, ptr %8, align 4, !tbaa !8
  %41 = icmp ne i32 %40, 0
  br i1 %41, label %42, label %74

42:                                               ; preds = %37
  %43 = load ptr, ptr %6, align 8, !tbaa !26
  %44 = call ptr @Abc_ObjFanin0(ptr noundef %43)
  store ptr %44, ptr %9, align 8, !tbaa !26
  %45 = load ptr, ptr %9, align 8, !tbaa !26
  %46 = call i32 @Abc_ObjFanoutNum(ptr noundef %45)
  %47 = icmp sgt i32 %46, 1
  br i1 %47, label %48, label %53

48:                                               ; preds = %42
  %49 = load ptr, ptr %9, align 8, !tbaa !26
  %50 = call i32 @Abc_NodeIsMuxControlType(ptr noundef %49)
  %51 = icmp ne i32 %50, 0
  %52 = xor i1 %51, true
  br label %53

53:                                               ; preds = %48, %42
  %54 = phi i1 [ false, %42 ], [ %52, %48 ]
  %55 = zext i1 %54 to i32
  %56 = load i32, ptr %12, align 4, !tbaa !8
  %57 = or i32 %56, %55
  store i32 %57, ptr %12, align 4, !tbaa !8
  %58 = load ptr, ptr %6, align 8, !tbaa !26
  %59 = call ptr @Abc_ObjFanin1(ptr noundef %58)
  store ptr %59, ptr %9, align 8, !tbaa !26
  %60 = load ptr, ptr %9, align 8, !tbaa !26
  %61 = call i32 @Abc_ObjFanoutNum(ptr noundef %60)
  %62 = icmp sgt i32 %61, 1
  br i1 %62, label %63, label %68

63:                                               ; preds = %53
  %64 = load ptr, ptr %9, align 8, !tbaa !26
  %65 = call i32 @Abc_NodeIsMuxControlType(ptr noundef %64)
  %66 = icmp ne i32 %65, 0
  %67 = xor i1 %66, true
  br label %68

68:                                               ; preds = %63, %53
  %69 = phi i1 [ false, %53 ], [ %67, %63 ]
  %70 = zext i1 %69 to i32
  %71 = shl i32 %70, 1
  %72 = load i32, ptr %12, align 4, !tbaa !8
  %73 = or i32 %72, %71
  store i32 %73, ptr %12, align 4, !tbaa !8
  br label %74

74:                                               ; preds = %68, %37
  call void @llvm.lifetime.start.p0(i64 8, ptr %13) #10
  %75 = load ptr, ptr %5, align 8, !tbaa !72
  %76 = call ptr @Cut_ManReadParams(ptr noundef %75)
  store ptr %76, ptr %13, align 8, !tbaa !36
  %77 = load ptr, ptr %13, align 8, !tbaa !36
  %78 = getelementptr inbounds nuw %struct.Cut_ParamsStruct_t_, ptr %77, i32 0, i32 12
  %79 = load i32, ptr %78, align 4, !tbaa !46
  %80 = icmp ne i32 %79, 0
  br i1 %80, label %81, label %121

81:                                               ; preds = %74
  call void @llvm.lifetime.start.p0(i64 8, ptr %14) #10
  %82 = load ptr, ptr %5, align 8, !tbaa !72
  %83 = call ptr @Cut_ManReadNodeAttrs(ptr noundef %82)
  store ptr %83, ptr %14, align 8, !tbaa !50
  %84 = load ptr, ptr %14, align 8, !tbaa !50
  %85 = load ptr, ptr %6, align 8, !tbaa !26
  %86 = getelementptr inbounds nuw %struct.Abc_Obj_t_, ptr %85, i32 0, i32 2
  %87 = load i32, ptr %86, align 8, !tbaa !48
  %88 = call i32 @Vec_IntEntry(ptr noundef %84, i32 noundef %87)
  store i32 %88, ptr %10, align 4, !tbaa !8
  %89 = load i32, ptr %10, align 4, !tbaa !8
  %90 = icmp ne i32 %89, 0
  br i1 %90, label %91, label %93

91:                                               ; preds = %81
  %92 = load ptr, ptr %5, align 8, !tbaa !72
  call void @Cut_ManIncrementDagNodes(ptr noundef %92)
  br label %93

93:                                               ; preds = %91, %81
  %94 = load ptr, ptr %14, align 8, !tbaa !50
  %95 = load ptr, ptr %6, align 8, !tbaa !26
  %96 = getelementptr inbounds nuw %struct.Abc_Obj_t_, ptr %95, i32 0, i32 2
  %97 = load i32, ptr %96, align 8, !tbaa !48
  %98 = call i32 @Vec_IntEntry(ptr noundef %94, i32 noundef %97)
  %99 = icmp ne i32 %98, 0
  %100 = xor i1 %99, true
  %101 = zext i1 %100 to i32
  store i32 %101, ptr %11, align 4, !tbaa !8
  store i32 0, ptr %12, align 4, !tbaa !8
  %102 = load ptr, ptr %6, align 8, !tbaa !26
  %103 = call ptr @Abc_ObjFanin0(ptr noundef %102)
  store ptr %103, ptr %9, align 8, !tbaa !26
  %104 = load ptr, ptr %14, align 8, !tbaa !50
  %105 = load ptr, ptr %9, align 8, !tbaa !26
  %106 = getelementptr inbounds nuw %struct.Abc_Obj_t_, ptr %105, i32 0, i32 2
  %107 = load i32, ptr %106, align 8, !tbaa !48
  %108 = call i32 @Vec_IntEntry(ptr noundef %104, i32 noundef %107)
  %109 = load i32, ptr %12, align 4, !tbaa !8
  %110 = or i32 %109, %108
  store i32 %110, ptr %12, align 4, !tbaa !8
  %111 = load ptr, ptr %6, align 8, !tbaa !26
  %112 = call ptr @Abc_ObjFanin1(ptr noundef %111)
  store ptr %112, ptr %9, align 8, !tbaa !26
  %113 = load ptr, ptr %14, align 8, !tbaa !50
  %114 = load ptr, ptr %9, align 8, !tbaa !26
  %115 = getelementptr inbounds nuw %struct.Abc_Obj_t_, ptr %114, i32 0, i32 2
  %116 = load i32, ptr %115, align 8, !tbaa !48
  %117 = call i32 @Vec_IntEntry(ptr noundef %113, i32 noundef %116)
  %118 = shl i32 %117, 1
  %119 = load i32, ptr %12, align 4, !tbaa !8
  %120 = or i32 %119, %118
  store i32 %120, ptr %12, align 4, !tbaa !8
  call void @llvm.lifetime.end.p0(i64 8, ptr %14) #10
  br label %121

121:                                              ; preds = %93, %74
  call void @llvm.lifetime.end.p0(i64 8, ptr %13) #10
  %122 = load ptr, ptr %5, align 8, !tbaa !72
  %123 = load ptr, ptr %6, align 8, !tbaa !26
  %124 = getelementptr inbounds nuw %struct.Abc_Obj_t_, ptr %123, i32 0, i32 2
  %125 = load i32, ptr %124, align 8, !tbaa !48
  %126 = load ptr, ptr %6, align 8, !tbaa !26
  %127 = call i32 @Abc_ObjFaninId0(ptr noundef %126)
  %128 = load ptr, ptr %6, align 8, !tbaa !26
  %129 = call i32 @Abc_ObjFaninId1(ptr noundef %128)
  %130 = load ptr, ptr %6, align 8, !tbaa !26
  %131 = call i32 @Abc_ObjFaninC0(ptr noundef %130)
  %132 = load ptr, ptr %6, align 8, !tbaa !26
  %133 = call i32 @Abc_ObjFaninC1(ptr noundef %132)
  %134 = load i32, ptr %11, align 4, !tbaa !8
  %135 = load i32, ptr %12, align 4, !tbaa !8
  %136 = call ptr @Cut_NodeComputeCuts(ptr noundef %122, i32 noundef %125, i32 noundef %127, i32 noundef %129, i32 noundef %131, i32 noundef %133, i32 noundef %134, i32 noundef %135)
  call void @llvm.lifetime.end.p0(i64 4, ptr %12) #10
  call void @llvm.lifetime.end.p0(i64 4, ptr %11) #10
  call void @llvm.lifetime.end.p0(i64 4, ptr %10) #10
  call void @llvm.lifetime.end.p0(i64 8, ptr %9) #10
  ret ptr %136
}