; Function Attrs: nounwind uwtable
define ptr @Abc_NodeGetCuts(ptr noundef %0, ptr noundef %1, i32 noundef %2, i32 noundef %3) local_unnamed_addr #0 {
  %5 = getelementptr i8, ptr %1, i64 44
  %.val52 = load i32, ptr %5, align 4, !tbaa !30
  %6 = icmp sgt i32 %.val52, 1
  br i1 %6, label %7, label %.thread

7:                                                ; preds = %4
  %8 = tail call i32 @Abc_NodeIsMuxControlType(ptr noundef nonnull %1) #13
  %.not = icmp eq i32 %8, 0
  br i1 %.not, label %9, label %.thread

9:                                                ; preds = %7
  tail call void @Cut_ManIncrementDagNodes(ptr noundef %0) #13
  br label %.thread

.thread:                                          ; preds = %4, %9, %7
  %10 = phi i1 [ true, %9 ], [ false, %7 ], [ false, %4 ]
  %.not40 = icmp eq i32 %2, 0
  %11 = or i1 %.not40, %10
  %.not41 = icmp eq i32 %3, 0
  br i1 %.not41, label %38, label %12

12:                                               ; preds = %.thread
  %.val = load ptr, ptr %1, align 8, !tbaa !48
  %13 = getelementptr i8, ptr %1, i64 32
  %.val47 = load ptr, ptr %13, align 8, !tbaa !49
  %14 = getelementptr i8, ptr %.val, i64 32
  %.val.val = load ptr, ptr %14, align 8, !tbaa !3
  %.val47.val = load i32, ptr %.val47, align 4, !tbaa !41
  %15 = getelementptr i8, ptr %.val.val, i64 8
  %.val.val.val = load ptr, ptr %15, align 8, !tbaa !26
  %16 = sext i32 %.val47.val to i64
  %17 = getelementptr inbounds ptr, ptr %.val.val.val, i64 %16
  %18 = load ptr, ptr %17, align 8, !tbaa !27
  %19 = getelementptr i8, ptr %18, i64 44
  %.val51 = load i32, ptr %19, align 4, !tbaa !30
  %20 = icmp sgt i32 %.val51, 1
  br i1 %20, label %21, label %24

21:                                               ; preds = %12
  %22 = tail call i32 @Abc_NodeIsMuxControlType(ptr noundef nonnull %18) #13
  %.not42 = icmp eq i32 %22, 0
  %23 = zext i1 %.not42 to i32
  %.val54.pre = load ptr, ptr %1, align 8, !tbaa !48
  %.val55.pre = load ptr, ptr %13, align 8, !tbaa !49
  %.phi.trans.insert = getelementptr i8, ptr %.val54.pre, i64 32
  %.val54.val.pre = load ptr, ptr %.phi.trans.insert, align 8, !tbaa !3
  %.phi.trans.insert68 = getelementptr i8, ptr %.val54.val.pre, i64 8
  %.val54.val.val.pre = load ptr, ptr %.phi.trans.insert68, align 8, !tbaa !26
  br label %24

24:                                               ; preds = %21, %12
  %.val54.val.val = phi ptr [ %.val.val.val, %12 ], [ %.val54.val.val.pre, %21 ]
  %.val55 = phi ptr [ %.val47, %12 ], [ %.val55.pre, %21 ]
  %25 = phi i32 [ 0, %12 ], [ %23, %21 ]
  %26 = getelementptr i8, ptr %.val55, i64 4
  %.val55.val = load i32, ptr %26, align 4, !tbaa !41
  %27 = sext i32 %.val55.val to i64
  %28 = getelementptr inbounds ptr, ptr %.val54.val.val, i64 %27
  %29 = load ptr, ptr %28, align 8, !tbaa !27
  %30 = getelementptr i8, ptr %29, i64 44
  %.val50 = load i32, ptr %30, align 4, !tbaa !30
  %31 = icmp sgt i32 %.val50, 1
  br i1 %31, label %32, label %35

32:                                               ; preds = %24
  %33 = tail call i32 @Abc_NodeIsMuxControlType(ptr noundef nonnull %29) #13
  %.not43 = icmp eq i32 %33, 0
  %34 = select i1 %.not43, i32 2, i32 0
  br label %35

35:                                               ; preds = %32, %24
  %36 = phi i32 [ 0, %24 ], [ %34, %32 ]
  %37 = or disjoint i32 %36, %25
  br label %38

38:                                               ; preds = %35, %.thread
  %.0 = phi i32 [ %37, %35 ], [ 0, %.thread ]
  %39 = tail call ptr @Cut_ManReadParams(ptr noundef %0) #13
  %40 = getelementptr inbounds nuw i8, ptr %39, i64 48
  %41 = load i32, ptr %40, align 4, !tbaa !44
  %.not44 = icmp eq i32 %41, 0
  br i1 %.not44, label %._crit_edge, label %42

._crit_edge:                                      ; preds = %38
  %.phi.trans.insert74 = getelementptr inbounds nuw i8, ptr %1, i64 16
  %.pre75 = load i32, ptr %.phi.trans.insert74, align 8, !tbaa !50
  %.phi.trans.insert76 = getelementptr i8, ptr %1, i64 32
  %.val53.pre = load ptr, ptr %.phi.trans.insert76, align 8, !tbaa !49
  %.val53.val.pre = load i32, ptr %.val53.pre, align 4, !tbaa !41
  %.phi.trans.insert79 = getelementptr i8, ptr %.val53.pre, i64 4
  %.val62.val.pre = load i32, ptr %.phi.trans.insert79, align 4, !tbaa !41
  br label %76

42:                                               ; preds = %38
  %43 = tail call ptr @Cut_ManReadNodeAttrs(ptr noundef %0) #13
  %44 = getelementptr inbounds nuw i8, ptr %1, i64 16
  %45 = load i32, ptr %44, align 8, !tbaa !50
  %46 = getelementptr i8, ptr %43, i64 8
  %.val58 = load ptr, ptr %46, align 8, !tbaa !46
  %47 = sext i32 %45 to i64
  %48 = getelementptr inbounds i32, ptr %.val58, i64 %47
  %49 = load i32, ptr %48, align 4, !tbaa !41
  %.not45 = icmp eq i32 %49, 0
  br i1 %.not45, label %52, label %50

50:                                               ; preds = %42
  tail call void @Cut_ManIncrementDagNodes(ptr noundef %0) #13
  %.pre = load i32, ptr %44, align 8, !tbaa !50
  %.val59.pre = load ptr, ptr %46, align 8, !tbaa !46
  %.phi.trans.insert71 = sext i32 %.pre to i64
  %.phi.trans.insert72 = getelementptr inbounds i32, ptr %.val59.pre, i64 %.phi.trans.insert71
  %.pre73 = load i32, ptr %.phi.trans.insert72, align 4, !tbaa !41
  %51 = icmp eq i32 %.pre73, 0
  br label %52

52:                                               ; preds = %50, %42
  %.not46 = phi i1 [ %51, %50 ], [ true, %42 ]
  %.val59 = phi ptr [ %.val59.pre, %50 ], [ %.val58, %42 ]
  %53 = phi i32 [ %.pre, %50 ], [ %45, %42 ]
  %.val48 = load ptr, ptr %1, align 8, !tbaa !48
  %54 = getelementptr i8, ptr %1, i64 32
  %.val49 = load ptr, ptr %54, align 8, !tbaa !49
  %55 = getelementptr i8, ptr %.val48, i64 32
  %.val48.val = load ptr, ptr %55, align 8, !tbaa !3
  %.val49.val = load i32, ptr %.val49, align 4, !tbaa !41
  %56 = getelementptr i8, ptr %.val48.val, i64 8
  %.val48.val.val = load ptr, ptr %56, align 8, !tbaa !26
  %57 = sext i32 %.val49.val to i64
  %58 = getelementptr inbounds ptr, ptr %.val48.val.val, i64 %57
  %59 = load ptr, ptr %58, align 8, !tbaa !27
  %60 = getelementptr inbounds nuw i8, ptr %59, i64 16
  %61 = load i32, ptr %60, align 8, !tbaa !50
  %62 = sext i32 %61 to i64
  %63 = getelementptr inbounds i32, ptr %.val59, i64 %62
  %64 = load i32, ptr %63, align 4, !tbaa !41
  %65 = getelementptr i8, ptr %.val49, i64 4
  %.val57.val = load i32, ptr %65, align 4, !tbaa !41
  %66 = sext i32 %.val57.val to i64
  %67 = getelementptr inbounds ptr, ptr %.val48.val.val, i64 %66
  %68 = load ptr, ptr %67, align 8, !tbaa !27
  %69 = getelementptr inbounds nuw i8, ptr %68, i64 16
  %70 = load i32, ptr %69, align 8, !tbaa !50
  %71 = sext i32 %70 to i64
  %72 = getelementptr inbounds i32, ptr %.val59, i64 %71
  %73 = load i32, ptr %72, align 4, !tbaa !41
  %74 = shl i32 %73, 1
  %75 = or i32 %74, %64
  br label %76

76:                                               ; preds = %._crit_edge, %52
  %.val62.val = phi i32 [ %.val57.val, %52 ], [ %.val62.val.pre, %._crit_edge ]
  %.val53.val = phi i32 [ %.val49.val, %52 ], [ %.val53.val.pre, %._crit_edge ]
  %77 = phi i32 [ %53, %52 ], [ %.pre75, %._crit_edge ]
  %.039.in = phi i1 [ %.not46, %52 ], [ %11, %._crit_edge ]
  %.1 = phi i32 [ %75, %52 ], [ %.0, %._crit_edge ]
  %.039 = zext i1 %.039.in to i32
  %78 = getelementptr i8, ptr %1, i64 20
  %.val63 = load i32, ptr %78, align 4
  %79 = lshr i32 %.val63, 10
  %80 = and i32 %79, 1
  %81 = lshr i32 %.val63, 11
  %82 = and i32 %81, 1
  %83 = tail call ptr @Cut_NodeComputeCuts(ptr noundef %0, i32 noundef %77, i32 noundef %.val53.val, i32 noundef %.val62.val, i32 noundef %80, i32 noundef %82, i32 noundef %.039, i32 noundef %.1) #13
  ret ptr %83
}